; Function Attrs: mustprogress nounwind uwtable
define hidden void @_ZN6Assimp11X3DImporterD0Ev(ptr noundef nonnull align 8 dereferenceable(120) initializes((0, 8), (96, 104)) %0) unnamed_addr #8 align 2 personality ptr @__gxx_personality_v0 {
  store ptr getelementptr inbounds nuw inrange(-16, 48) (i8, ptr @_ZTVN6Assimp11X3DImporterE, i64 16), ptr %0, align 8
  %2 = getelementptr inbounds nuw i8, ptr %0, i64 96
  store ptr null, ptr %2, align 8
  %3 = getelementptr inbounds nuw i8, ptr %0, i64 72
  %4 = load ptr, ptr %3, align 8
  %5 = icmp eq ptr %4, %3
  br i1 %5, label %_ZNSt7__cxx1110_List_baseIP18X3DNodeElementBaseSaIS2_EED2Ev.exit.i, label %.preheader.i.i

6:                                                ; preds = %18
  %7 = load ptr, ptr %3, align 8
  %.not8.i.i.i.i = icmp eq ptr %7, %3
  br i1 %.not8.i.i.i.i, label %_ZN6Assimp11X3DImporter5ClearEv.exit.thread.i, label %.lr.ph.i.i.i.i

.lr.ph.i.i.i.i:                                   ; preds = %6, %.lr.ph.i.i.i.i
  %.09.i.i.i.i = phi ptr [ %8, %.lr.ph.i.i.i.i ], [ %7, %6 ]
  %8 = load ptr, ptr %.09.i.i.i.i, align 8
  tail call void @_ZdlPvm(ptr noundef nonnull %.09.i.i.i.i, i64 noundef 24) #33
  %.not.i.i.i.i = icmp eq ptr %8, %3
  br i1 %.not.i.i.i.i, label %_ZN6Assimp11X3DImporter5ClearEv.exit.thread.i, label %.lr.ph.i.i.i.i, !llvm.loop !23

_ZN6Assimp11X3DImporter5ClearEv.exit.thread.i:    ; preds = %.lr.ph.i.i.i.i, %6
  %9 = getelementptr inbounds nuw i8, ptr %0, i64 80
  store ptr %3, ptr %9, align 8
  store ptr %3, ptr %3, align 8
  %10 = getelementptr inbounds nuw i8, ptr %0, i64 88
  store i64 0, ptr %10, align 8
  br label %_ZNSt7__cxx1110_List_baseIP18X3DNodeElementBaseSaIS2_EED2Ev.exit.i

.preheader.i.i:                                   ; preds = %1, %18
  %.sroa.01.04.i.i = phi ptr [ %19, %18 ], [ %4, %1 ]
  %11 = getelementptr inbounds nuw i8, ptr %.sroa.01.04.i.i, i64 16
  %12 = load ptr, ptr %11, align 8
  %13 = icmp eq ptr %12, null
  br i1 %13, label %18, label %14

14:                                               ; preds = %.preheader.i.i
  %15 = load ptr, ptr %12, align 8
  %16 = getelementptr inbounds nuw i8, ptr %15, i64 8
  %17 = load ptr, ptr %16, align 8
  tail call void %17(ptr noundef nonnull align 8 dereferenceable(76) %12) #31
  br label %18

18:                                               ; preds = %14, %.preheader.i.i
  %19 = load ptr, ptr %.sroa.01.04.i.i, align 8
  %.not.i.i = icmp eq ptr %19, %3
  br i1 %.not.i.i, label %6, label %.preheader.i.i, !llvm.loop !24

_ZNSt7__cxx1110_List_baseIP18X3DNodeElementBaseSaIS2_EED2Ev.exit.i: ; preds = %_ZN6Assimp11X3DImporter5ClearEv.exit.thread.i, %1
  store ptr getelementptr inbounds nuw inrange(-16, 48) (i8, ptr @_ZTVN6Assimp12BaseImporterE, i64 16), ptr %0, align 8
  %20 = getelementptr inbounds nuw i8, ptr %0, i64 56
  %21 = load ptr, ptr %20, align 8
  %.not.i.i1.i = icmp eq ptr %21, null
  br i1 %.not.i.i1.i, label %_ZNSt15__exception_ptr13exception_ptrD2Ev.exit.i.i, label %22

22:                                               ; preds = %_ZNSt7__cxx1110_List_baseIP18X3DNodeElementBaseSaIS2_EED2Ev.exit.i
  tail call void @_ZNSt15__exception_ptr13exception_ptr10_M_releaseEv(ptr noundef nonnull align 8 dereferenceable(8) %20) #31
  br label %_ZNSt15__exception_ptr13exception_ptrD2Ev.exit.i.i

_ZNSt15__exception_ptr13exception_ptrD2Ev.exit.i.i: ; preds = %22, %_ZNSt7__cxx1110_List_baseIP18X3DNodeElementBaseSaIS2_EED2Ev.exit.i
  %23 = getelementptr inbounds nuw i8, ptr %0, i64 24
  %24 = load ptr, ptr %23, align 8
  %25 = getelementptr inbounds nuw i8, ptr %0, i64 40
  %26 = icmp eq ptr %24, %25
  br i1 %26, label %_ZNKSt7__cxx1112basic_stringIcSt11char_traitsIcESaIcEE11_M_is_localEv.exit.thread.i.i.i.i, label %_ZNKSt7__cxx1112basic_stringIcSt11char_traitsIcESaIcEE11_M_is_localEv.exit.i.i.i.i

_ZNKSt7__cxx1112basic_stringIcSt11char_traitsIcESaIcEE11_M_is_localEv.exit.thread.i.i.i.i: ; preds = %_ZNSt15__exception_ptr13exception_ptrD2Ev.exit.i.i
  %27 = getelementptr inbounds nuw i8, ptr %0, i64 32
  %28 = load i64, ptr %27, align 8
  %29 = icmp ult i64 %28, 16
  tail call void @llvm.assume(i1 %29)
  br label %_ZN6Assimp11X3DImporterD2Ev.exit

_ZNKSt7__cxx1112basic_stringIcSt11char_traitsIcESaIcEE11_M_is_localEv.exit.i.i.i.i: ; preds = %_ZNSt15__exception_ptr13exception_ptrD2Ev.exit.i.i
  %30 = load i64, ptr %25, align 8
  %31 = add i64 %30, 1
  tail call void @_ZdlPvm(ptr noundef %24, i64 noundef %31) #33
  br label %_ZN6Assimp11X3DImporterD2Ev.exit

_ZN6Assimp11X3DImporterD2Ev.exit:                 ; preds = %_ZNKSt7__cxx1112basic_stringIcSt11char_traitsIcESaIcEE11_M_is_localEv.exit.thread.i.i.i.i, %_ZNKSt7__cxx1112basic_stringIcSt11char_traitsIcESaIcEE11_M_is_localEv.exit.i.i.i.i
  tail call void @_ZdlPvm(ptr noundef nonnull %0, i64 noundef 120) #33
  ret void
}